; Function Attrs: mustprogress nounwind uwtable
define dso_local noundef zeroext i1 @_ZN5cmsys31SystemInformationImplementation23QueryProcessorBySysconfEv(ptr noundef nonnull writeonly align 8 captures(none) dereferenceable(457) %0) local_unnamed_addr #6 align 2 {
  %2 = tail call i64 @sysconf(i32 noundef 84) #34
  %3 = icmp sgt i64 %2, 0
  br i1 %3, label %4, label %8

4:                                                ; preds = %1
  %5 = trunc i64 %2 to i32
  %6 = getelementptr inbounds nuw i8, ptr %0, i64 216
  store i32 %5, ptr %6, align 8, !tbaa !79
  %7 = getelementptr inbounds nuw i8, ptr %0, i64 212
  store i32 %5, ptr %7, align 4, !tbaa !128
  br label %8

8:                                                ; preds = %1, %4
  ret i1 %3
}